target datalayout = "e-m:e-p270:32:32-p271:32:32-p272:64:64-i64:64-i128:128-f80:128-n8:16:32:64-S128"
target triple = "x86_64-pc-linux-gnu"

%"struct.std::_Rb_tree_header" = type { %"struct.std::_Rb_tree_node_base", i64 }
%"struct.std::_Rb_tree_node_base" = type { i32, ptr, ptr, ptr }
%"class.casadi::Function" = type { %"class.casadi::SharedObject" }
%"class.casadi::SharedObject" = type { %"class.casadi::GenericShared" }
%"class.casadi::GenericShared" = type { ptr }
%"class.std::vector" = type { %"struct.std::_Bvector_base" }
%"struct.std::_Bvector_base" = type { %"struct.std::_Bvector_base<std::allocator<bool>>::_Bvector_impl" }
%"struct.std::_Bvector_base<std::allocator<bool>>::_Bvector_impl" = type { %"struct.std::_Bvector_base<std::allocator<bool>>::_Bvector_impl_data" }
%"struct.std::_Bvector_base<std::allocator<bool>>::_Bvector_impl_data" = type { %"struct.std::_Bit_iterator", %"struct.std::_Bit_iterator", ptr }
%"struct.std::_Bit_iterator" = type { %"struct.std::_Bit_iterator_base.base", [4 x i8] }
%"struct.std::_Bit_iterator_base.base" = type <{ ptr, i32 }>
%"class.std::map" = type { %"class.std::_Rb_tree" }
%"class.std::_Rb_tree" = type { %"struct.std::_Rb_tree<std::__cxx11::basic_string<char>, std::pair<const std::__cxx11::basic_string<char>, casadi::GenericType>, std::_Select1st<std::pair<const std::__cxx11::basic_string<char>, casadi::GenericType>>, std::less<std::__cxx11::basic_string<char>>>::_Rb_tree_impl" }
%"struct.std::_Rb_tree<std::__cxx11::basic_string<char>, std::pair<const std::__cxx11::basic_string<char>, casadi::GenericType>, std::_Select1st<std::pair<const std::__cxx11::basic_string<char>, casadi::GenericType>>, std::less<std::__cxx11::basic_string<char>>>::_Rb_tree_impl" = type { [8 x i8], %"struct.std::_Rb_tree_header" }
%"class.std::__cxx11::basic_string" = type { %"struct.std::__cxx11::basic_string<char>::_Alloc_hider", i64, %union.anon }
%"struct.std::__cxx11::basic_string<char>::_Alloc_hider" = type { ptr }
%union.anon = type { i64, [8 x i8] }
%"class.std::vector.9" = type { %"struct.std::_Vector_base" }
%"struct.std::_Vector_base" = type { %"struct.std::_Vector_base<std::__cxx11::basic_string<char>, std::allocator<std::__cxx11::basic_string<char>>>::_Vector_impl" }
%"struct.std::_Vector_base<std::__cxx11::basic_string<char>, std::allocator<std::__cxx11::basic_string<char>>>::_Vector_impl" = type { %"struct.std::_Vector_base<std::__cxx11::basic_string<char>, std::allocator<std::__cxx11::basic_string<char>>>::_Vector_impl_data" }
%"struct.std::_Vector_base<std::__cxx11::basic_string<char>, std::allocator<std::__cxx11::basic_string<char>>>::_Vector_impl_data" = type { ptr, ptr, ptr }
%"class.casadi::MapSum" = type { %"class.casadi::FunctionInternal", %"class.casadi::Function", i64, %"class.std::vector", %"class.std::vector" }
%"class.casadi::FunctionInternal" = type { %"class.casadi::ProtoFunction", i8, i8, i64, i64, %"class.std::vector", %"class.std::vector", %"class.std::vector.21", %"class.std::vector.21", %"class.std::vector.9", %"class.std::vector.9", i8, i8, %"class.std::__cxx11::basic_string", %"class.std::__cxx11::basic_string", %"class.std::__cxx11::basic_string", i8, ptr, ptr, ptr, %"class.std::map", i8, %"class.std::map", %"class.casadi::WeakCache", [2 x %"class.std::vector.21"], %"class.casadi::Function", ptr, %"class.std::__cxx11::basic_string", %"class.casadi::Importer", %"class.std::map", double, i8, i8, i8, i8, i8, i8, i8, i8, double, double, i64, i8, %"class.std::map", double, %"class.std::__cxx11::basic_string", i8, i8, i64, i8, i8, i8, %"class.std::__cxx11::basic_string", %"class.std::__cxx11::basic_string", %"class.std::map", %"class.std::map", %"class.std::map", %"class.std::map", %"class.casadi::Function", i64, i64, i64, i64, i64, i64, i64, i64, i64 }
%"class.casadi::ProtoFunction" = type { %"class.casadi::SharedObjectInternal", %"class.std::__cxx11::basic_string", i8, i8, i8, i8, i8, %"class.std::vector.13", %"class.std::stack" }
%"class.casadi::SharedObjectInternal" = type { %"class.casadi::GenericSharedInternal", i64 }
%"class.casadi::GenericSharedInternal" = type { ptr, ptr }
%"class.std::vector.13" = type { %"struct.std::_Vector_base.14" }
%"struct.std::_Vector_base.14" = type { %"struct.std::_Vector_base<void *, std::allocator<void *>>::_Vector_impl" }
%"struct.std::_Vector_base<void *, std::allocator<void *>>::_Vector_impl" = type { %"struct.std::_Vector_base<void *, std::allocator<void *>>::_Vector_impl_data" }
%"struct.std::_Vector_base<void *, std::allocator<void *>>::_Vector_impl_data" = type { ptr, ptr, ptr }
%"class.std::stack" = type { %"class.std::deque" }
%"class.std::deque" = type { %"class.std::_Deque_base" }
%"class.std::_Deque_base" = type { %"struct.std::_Deque_base<int, std::allocator<int>>::_Deque_impl" }
%"struct.std::_Deque_base<int, std::allocator<int>>::_Deque_impl" = type { %"struct.std::_Deque_base<int, std::allocator<int>>::_Deque_impl_data" }
%"struct.std::_Deque_base<int, std::allocator<int>>::_Deque_impl_data" = type { ptr, i64, %"struct.std::_Deque_iterator", %"struct.std::_Deque_iterator" }
%"struct.std::_Deque_iterator" = type { ptr, ptr, ptr, ptr }
%"class.std::vector.21" = type { %"struct.std::_Vector_base.22" }
%"struct.std::_Vector_base.22" = type { %"struct.std::_Vector_base<casadi::Sparsity, std::allocator<casadi::Sparsity>>::_Vector_impl" }
%"struct.std::_Vector_base<casadi::Sparsity, std::allocator<casadi::Sparsity>>::_Vector_impl" = type { %"struct.std::_Vector_base<casadi::Sparsity, std::allocator<casadi::Sparsity>>::_Vector_impl_data" }
%"struct.std::_Vector_base<casadi::Sparsity, std::allocator<casadi::Sparsity>>::_Vector_impl_data" = type { ptr, ptr, ptr }
%"class.casadi::WeakCache" = type { %"class.std::unordered_map" }
%"class.std::unordered_map" = type { %"class.std::_Hashtable" }
%"class.std::_Hashtable" = type { ptr, i64, %"struct.std::__detail::_Hash_node_base", i64, %"struct.std::__detail::_Prime_rehash_policy", ptr }
%"struct.std::__detail::_Hash_node_base" = type { ptr }
%"struct.std::__detail::_Prime_rehash_policy" = type { float, i64 }
%"class.casadi::Importer" = type { %"class.casadi::SharedObject" }
%"struct.std::_Bit_iterator_base" = type <{ ptr, i32, [4 x i8] }>

; Function Attrs: mustprogress nounwind uwtable
define linkonce_odr hidden void @_ZNSt18_Bit_iterator_baseC2EPmj(ptr noundef nonnull align 8 dereferenceable(12) %0, ptr noundef %1, i32 noundef %2) unnamed_addr #5 comdat align 2 {
  %4 = alloca ptr, align 8
  %5 = alloca ptr, align 8
  %6 = alloca i32, align 4
  store ptr %0, ptr %4, align 8, !tbaa !308
  store ptr %1, ptr %5, align 8, !tbaa !310
  store i32 %2, ptr %6, align 4, !tbaa !148
  %7 = load ptr, ptr %4, align 8
  %8 = getelementptr inbounds nuw %"struct.std::_Bit_iterator_base", ptr %7, i32 0, i32 0
  %9 = load ptr, ptr %5, align 8, !tbaa !310
  store ptr %9, ptr %8, align 8, !tbaa !311
  %10 = getelementptr inbounds nuw %"struct.std::_Bit_iterator_base", ptr %7, i32 0, i32 1
  %11 = load i32, ptr %6, align 4, !tbaa !148
  store i32 %11, ptr %10, align 8, !tbaa !312
  ret void
}

; Function Attrs: mustprogress uwtable
define linkonce_odr hidden void @_ZNSt13_Bit_iteratorC2Ev(ptr noundef nonnull align 8 dereferenceable(12) %0) unnamed_addr #4 comdat align 2 {
  %2 = alloca ptr, align 8
  store ptr %0, ptr %2, align 8, !tbaa !306
  %3 = load ptr, ptr %2, align 8
  call void @_ZNSt18_Bit_iterator_baseC2EPmj(ptr noundef nonnull align 8 dereferenceable(12) %3, ptr noundef null, i32 noundef 0)
  ret void
}

; Function Attrs: mustprogress nounwind uwtable
define linkonce_odr hidden void @_ZNSt13_Bvector_baseISaIbEE18_Bvector_impl_dataC2Ev(ptr noundef nonnull align 8 dereferenceable(40) %0) unnamed_addr #5 comdat align 2 personality ptr @__gxx_personality_v0 {
  %2 = alloca ptr, align 8
  store ptr %0, ptr %2, align 8, !tbaa !394
  %3 = load ptr, ptr %2, align 8
  %4 = getelementptr inbounds nuw %"struct.std::_Bvector_base<std::allocator<bool>>::_Bvector_impl_data", ptr %3, i32 0, i32 0
  invoke void @_ZNSt13_Bit_iteratorC2Ev(ptr noundef nonnull align 8 dereferenceable(12) %4)
          to label %5 unwind label %9

5:                                                ; preds = %1
  %6 = getelementptr inbounds nuw %"struct.std::_Bvector_base<std::allocator<bool>>::_Bvector_impl_data", ptr %3, i32 0, i32 1
  invoke void @_ZNSt13_Bit_iteratorC2Ev(ptr noundef nonnull align 8 dereferenceable(12) %6)
          to label %7 unwind label %9

7:                                                ; preds = %5
  %8 = getelementptr inbounds nuw %"struct.std::_Bvector_base<std::allocator<bool>>::_Bvector_impl_data", ptr %3, i32 0, i32 2
  store ptr null, ptr %8, align 8, !tbaa !393
  ret void

9:                                                ; preds = %5, %1
  %10 = landingpad { ptr, i32 }
          catch ptr null
  %11 = extractvalue { ptr, i32 } %10, 0
  call void @__clang_call_terminate(ptr %11) #21
  unreachable
}

; Function Attrs: mustprogress nounwind uwtable
define linkonce_odr hidden void @_ZNSt15__new_allocatorImE10deallocateEPmm(ptr noundef nonnull align 1 dereferenceable(1) %0, ptr noundef %1, i64 noundef %2) #5 comdat align 2 {
  %4 = alloca ptr, align 8
  %5 = alloca ptr, align 8
  %6 = alloca i64, align 8
  store ptr %0, ptr %4, align 8, !tbaa !304
  store ptr %1, ptr %5, align 8, !tbaa !310
  store i64 %2, ptr %6, align 8, !tbaa !20
  %7 = load ptr, ptr %5, align 8, !tbaa !310
  %8 = load i64, ptr %6, align 8, !tbaa !20
  %9 = mul i64 %8, 8
  call void @_ZdlPvm(ptr noundef %7, i64 noundef %9) #20
  ret void
}

; Function Attrs: mustprogress nounwind uwtable
define linkonce_odr hidden void @_ZNSt13_Bvector_baseISaIbEE18_Bvector_impl_data8_M_resetEv(ptr noundef nonnull align 8 dereferenceable(40) %0) #5 comdat align 2 {
  %2 = alloca ptr, align 8
  %3 = alloca %"struct.std::_Bvector_base<std::allocator<bool>>::_Bvector_impl_data", align 8
  store ptr %0, ptr %2, align 8, !tbaa !394
  %4 = load ptr, ptr %2, align 8
  call void @llvm.lifetime.start.p0(i64 40, ptr %3) #3
  call void @_ZNSt13_Bvector_baseISaIbEE18_Bvector_impl_dataC2Ev(ptr noundef nonnull align 8 dereferenceable(40) %3) #3
  call void @llvm.memcpy.p0.p0.i64(ptr align 8 %4, ptr align 8 %3, i64 40, i1 false)
  call void @llvm.lifetime.end.p0(i64 40, ptr %3) #3
  ret void
}

; Function Attrs: mustprogress uwtable
define linkonce_odr hidden void @_ZNSt16allocator_traitsISaImEE10deallocateERS0_Pmm(ptr noundef nonnull align 1 dereferenceable(1) %0, ptr noundef %1, i64 noundef %2) #4 comdat align 2 {
  %4 = alloca ptr, align 8
  %5 = alloca ptr, align 8
  %6 = alloca i64, align 8
  store ptr %0, ptr %4, align 8, !tbaa !302
  store ptr %1, ptr %5, align 8, !tbaa !310
  store i64 %2, ptr %6, align 8, !tbaa !20
  %7 = load ptr, ptr %4, align 8, !tbaa !302
  %8 = load ptr, ptr %5, align 8, !tbaa !310
  %9 = load i64, ptr %6, align 8, !tbaa !20
  call void @_ZNSt15__new_allocatorImE10deallocateEPmm(ptr noundef nonnull align 1 dereferenceable(1) %7, ptr noundef %8, i64 noundef %9)
  ret void
}

; Function Attrs: mustprogress nounwind uwtable
define linkonce_odr hidden noundef ptr @_ZNKSt13_Bvector_baseISaIbEE13_Bvector_impl11_M_end_addrEv(ptr noundef nonnull align 8 dereferenceable(40) %0) #5 comdat align 2 {
  %2 = alloca ptr, align 8
  %3 = alloca ptr, align 8
  store ptr %0, ptr %3, align 8, !tbaa !300
  %4 = load ptr, ptr %3, align 8
  %5 = getelementptr inbounds nuw %"struct.std::_Bvector_base<std::allocator<bool>>::_Bvector_impl_data", ptr %4, i32 0, i32 2
  %6 = load ptr, ptr %5, align 8, !tbaa !393
  %7 = icmp ne ptr %6, null
  br i1 %7, label %8, label %13

8:                                                ; preds = %1
  %9 = getelementptr inbounds nuw %"struct.std::_Bvector_base<std::allocator<bool>>::_Bvector_impl_data", ptr %4, i32 0, i32 2
  %10 = load ptr, ptr %9, align 8, !tbaa !393
  %11 = getelementptr inbounds i64, ptr %10, i64 -1
  %12 = getelementptr inbounds i64, ptr %11, i64 1
  store ptr %12, ptr %2, align 8
  br label %14

13:                                               ; preds = %1
  store ptr null, ptr %2, align 8
  br label %14

14:                                               ; preds = %13, %8
  %15 = load ptr, ptr %2, align 8
  ret ptr %15
}

; Function Attrs: mustprogress nounwind uwtable
define linkonce_odr hidden void @_ZNSt15__new_allocatorImED2Ev(ptr noundef nonnull align 1 dereferenceable(1) %0) unnamed_addr #5 comdat align 2 {
  %2 = alloca ptr, align 8
  store ptr %0, ptr %2, align 8, !tbaa !304
  ret void
}

; Function Attrs: mustprogress uwtable
define linkonce_odr hidden void @_ZNSt13_Bvector_baseISaIbEE13_M_deallocateEv(ptr noundef nonnull align 8 dereferenceable(40) %0) #4 comdat align 2 {
  %2 = alloca ptr, align 8
  %3 = alloca i64, align 8
  store ptr %0, ptr %2, align 8, !tbaa !26
  %4 = load ptr, ptr %2, align 8
  %5 = getelementptr inbounds nuw %"struct.std::_Bvector_base", ptr %4, i32 0, i32 0
  %6 = getelementptr inbounds nuw %"struct.std::_Bvector_base<std::allocator<bool>>::_Bvector_impl_data", ptr %5, i32 0, i32 0
  %7 = getelementptr inbounds nuw %"struct.std::_Bit_iterator_base", ptr %6, i32 0, i32 0
  %8 = load ptr, ptr %7, align 8, !tbaa !311
  %9 = icmp ne ptr %8, null
  br i1 %9, label %10, label %30

10:                                               ; preds = %1
  call void @llvm.lifetime.start.p0(i64 8, ptr %3) #3
  %11 = getelementptr inbounds nuw %"struct.std::_Bvector_base", ptr %4, i32 0, i32 0
  %12 = call noundef ptr @_ZNKSt13_Bvector_baseISaIbEE13_Bvector_impl11_M_end_addrEv(ptr noundef nonnull align 8 dereferenceable(40) %11) #3
  %13 = getelementptr inbounds nuw %"struct.std::_Bvector_base", ptr %4, i32 0, i32 0
  %14 = getelementptr inbounds nuw %"struct.std::_Bvector_base<std::allocator<bool>>::_Bvector_impl_data", ptr %13, i32 0, i32 0
  %15 = getelementptr inbounds nuw %"struct.std::_Bit_iterator_base", ptr %14, i32 0, i32 0
  %16 = load ptr, ptr %15, align 8, !tbaa !311
  %17 = ptrtoint ptr %12 to i64
  %18 = ptrtoint ptr %16 to i64
  %19 = sub i64 %17, %18
  %20 = sdiv exact i64 %19, 8
  store i64 %20, ptr %3, align 8, !tbaa !20
  %21 = getelementptr inbounds nuw %"struct.std::_Bvector_base", ptr %4, i32 0, i32 0
  %22 = getelementptr inbounds nuw %"struct.std::_Bvector_base", ptr %4, i32 0, i32 0
  %23 = getelementptr inbounds nuw %"struct.std::_Bvector_base<std::allocator<bool>>::_Bvector_impl_data", ptr %22, i32 0, i32 2
  %24 = load ptr, ptr %23, align 8, !tbaa !393
  %25 = load i64, ptr %3, align 8, !tbaa !20
  %26 = sub i64 0, %25
  %27 = getelementptr inbounds i64, ptr %24, i64 %26
  %28 = load i64, ptr %3, align 8, !tbaa !20
  call void @_ZNSt16allocator_traitsISaImEE10deallocateERS0_Pmm(ptr noundef nonnull align 1 dereferenceable(1) %21, ptr noundef %27, i64 noundef %28)
  %29 = getelementptr inbounds nuw %"struct.std::_Bvector_base", ptr %4, i32 0, i32 0
  call void @_ZNSt13_Bvector_baseISaIbEE18_Bvector_impl_data8_M_resetEv(ptr noundef nonnull align 8 dereferenceable(40) %29) #3
  call void @llvm.lifetime.end.p0(i64 8, ptr %3) #3
  br label %30

30:                                               ; preds = %10, %1
  ret void
}

; Function Attrs: mustprogress nounwind uwtable
define linkonce_odr hidden void @_ZNSt13_Bvector_baseISaIbEED2Ev(ptr noundef nonnull align 8 dereferenceable(40) %0) unnamed_addr #5 comdat align 2 personality ptr @__gxx_personality_v0 {
  %2 = alloca ptr, align 8
  store ptr %0, ptr %2, align 8, !tbaa !26
  %3 = load ptr, ptr %2, align 8
  invoke void @_ZNSt13_Bvector_baseISaIbEE13_M_deallocateEv(ptr noundef nonnull align 8 dereferenceable(40) %3)
          to label %4 unwind label %6

4:                                                ; preds = %1
  %5 = getelementptr inbounds nuw %"struct.std::_Bvector_base", ptr %3, i32 0, i32 0
  call void @_ZNSt15__new_allocatorImED2Ev(ptr noundef nonnull align 8 dereferenceable(40) %5) #3
  ret void

6:                                                ; preds = %1
  %7 = landingpad { ptr, i32 }
          catch ptr null
  %8 = extractvalue { ptr, i32 } %7, 0
  call void @__clang_call_terminate(ptr %8) #21
  unreachable
}

; Function Attrs: mustprogress nounwind uwtable
define void @_ZN6casadi6MapSumD2Ev(ptr noundef nonnull align 8 dereferenceable(1408) %0) unnamed_addr #5 align 2 personality ptr @__gxx_personality_v0 {
  %2 = alloca ptr, align 8
  store ptr %0, ptr %2, align 8, !tbaa !47
  %3 = load ptr, ptr %2, align 8
  store ptr getelementptr inbounds inrange(-16, 936) ({ [119 x ptr] }, ptr @_ZTVN6casadi6MapSumE, i32 0, i32 0, i32 2), ptr %3, align 8, !tbaa !38
  invoke void @_ZN6casadi13ProtoFunction9clear_memEv(ptr noundef nonnull align 8 dereferenceable(168) %3)
          to label %4 unwind label %8

4:                                                ; preds = %1
  %5 = getelementptr inbounds nuw %"class.casadi::MapSum", ptr %3, i32 0, i32 4
  call void @_ZNSt13_Bvector_baseISaIbEED2Ev(ptr noundef nonnull align 8 dereferenceable(40) %5) #3
  %6 = getelementptr inbounds nuw %"class.casadi::MapSum", ptr %3, i32 0, i32 3
  call void @_ZNSt13_Bvector_baseISaIbEED2Ev(ptr noundef nonnull align 8 dereferenceable(40) %6) #3
  %7 = getelementptr inbounds nuw %"class.casadi::MapSum", ptr %3, i32 0, i32 1
  call void @_ZN6casadi8FunctionD1Ev(ptr noundef nonnull align 8 dereferenceable(8) %7) #3
  call void @_ZN6casadi16FunctionInternalD2Ev(ptr noundef nonnull align 8 dereferenceable(1312) %3) #3
  ret void

8:                                                ; preds = %1
  %9 = landingpad { ptr, i32 }
          catch ptr null
  %10 = extractvalue { ptr, i32 } %9, 0
  call void @__clang_call_terminate(ptr %10) #21
  unreachable
}