; Function Attrs: mustprogress nounwind uwtable
define void @_ZN6casadi6MapSumD2Ev(ptr noundef nonnull align 8 dereferenceable(1408) initializes((0, 8)) %0) unnamed_addr #6 align 2 personality ptr @__gxx_personality_v0 {
  store ptr getelementptr inbounds nuw inrange(-16, 936) (i8, ptr @_ZTVN6casadi6MapSumE, i64 16), ptr %0, align 8, !tbaa !48
  invoke void @_ZN6casadi13ProtoFunction9clear_memEv(ptr noundef nonnull align 8 dereferenceable(168) %0)
          to label %2 unwind label %26

2:                                                ; preds = %1
  %3 = getelementptr inbounds nuw i8, ptr %0, i64 1368
  %4 = load ptr, ptr %3, align 8, !tbaa !3
  %.not.i.i = icmp eq ptr %4, null
  br i1 %.not.i.i, label %_ZNSt13_Bvector_baseISaIbEED2Ev.exit, label %5

5:                                                ; preds = %2
  %6 = getelementptr inbounds nuw i8, ptr %0, i64 1400
  %7 = load ptr, ptr %6, align 8, !tbaa !11
  %8 = ptrtoint ptr %7 to i64
  %9 = ptrtoint ptr %4 to i64
  %10 = sub i64 %8, %9
  %11 = ashr exact i64 %10, 3
  %12 = sub nsw i64 0, %11
  %13 = getelementptr inbounds i64, ptr %7, i64 %12
  tail call void @_ZdlPvm(ptr noundef %13, i64 noundef %10) #27
  store ptr null, ptr %3, align 8
  %.sroa.4.0..sroa_idx.i.i.i = getelementptr inbounds nuw i8, ptr %0, i64 1376
  store i32 0, ptr %.sroa.4.0..sroa_idx.i.i.i, align 8
  %.sroa.51.0..sroa_idx.i.i.i = getelementptr inbounds nuw i8, ptr %0, i64 1384
  store ptr null, ptr %.sroa.51.0..sroa_idx.i.i.i, align 8
  %.sroa.6.0..sroa_idx.i.i.i = getelementptr inbounds nuw i8, ptr %0, i64 1392
  store i32 0, ptr %.sroa.6.0..sroa_idx.i.i.i, align 8
  store ptr null, ptr %6, align 8
  br label %_ZNSt13_Bvector_baseISaIbEED2Ev.exit

_ZNSt13_Bvector_baseISaIbEED2Ev.exit:             ; preds = %2, %5
  %14 = getelementptr inbounds nuw i8, ptr %0, i64 1328
  %15 = load ptr, ptr %14, align 8, !tbaa !3
  %.not.i.i1 = icmp eq ptr %15, null
  br i1 %.not.i.i1, label %_ZNSt13_Bvector_baseISaIbEED2Ev.exit5, label %16

16:                                               ; preds = %_ZNSt13_Bvector_baseISaIbEED2Ev.exit
  %17 = getelementptr inbounds nuw i8, ptr %0, i64 1360
  %18 = load ptr, ptr %17, align 8, !tbaa !11
  %19 = ptrtoint ptr %18 to i64
  %20 = ptrtoint ptr %15 to i64
  %21 = sub i64 %19, %20
  %22 = ashr exact i64 %21, 3
  %23 = sub nsw i64 0, %22
  %24 = getelementptr inbounds i64, ptr %18, i64 %23
  tail call void @_ZdlPvm(ptr noundef %24, i64 noundef %21) #27
  store ptr null, ptr %14, align 8
  %.sroa.4.0..sroa_idx.i.i.i2 = getelementptr inbounds nuw i8, ptr %0, i64 1336
  store i32 0, ptr %.sroa.4.0..sroa_idx.i.i.i2, align 8
  %.sroa.51.0..sroa_idx.i.i.i3 = getelementptr inbounds nuw i8, ptr %0, i64 1344
  store ptr null, ptr %.sroa.51.0..sroa_idx.i.i.i3, align 8
  %.sroa.6.0..sroa_idx.i.i.i4 = getelementptr inbounds nuw i8, ptr %0, i64 1352
  store i32 0, ptr %.sroa.6.0..sroa_idx.i.i.i4, align 8
  store ptr null, ptr %17, align 8
  br label %_ZNSt13_Bvector_baseISaIbEED2Ev.exit5

_ZNSt13_Bvector_baseISaIbEED2Ev.exit5:            ; preds = %_ZNSt13_Bvector_baseISaIbEED2Ev.exit, %16
  %25 = getelementptr inbounds nuw i8, ptr %0, i64 1312
  tail call void @_ZN6casadi8FunctionD1Ev(ptr noundef nonnull align 8 dereferenceable(8) %25) #24
  tail call void @_ZN6casadi16FunctionInternalD2Ev(ptr noundef nonnull align 8 dereferenceable(1312) %0) #24
  ret void

26:                                               ; preds = %1
  %27 = landingpad { ptr, i32 }
          catch ptr null
  %28 = extractvalue { ptr, i32 } %27, 0
  tail call void @__clang_call_terminate(ptr %28) #26
  unreachable
}